ASxxxx Linker V03.00 + NoICE + sdld,  page 1.
Hexadecimal  [32-Bits]

Area                                    Addr        Size        Decimal Bytes (Attributes)
--------------------------------        ----        ----        ------- ----- ------------
.  .ABS.                            00000000    00000000 =           0. bytes (ABS,CON)

      Value  Global                              Global Defined In Module
      -----  --------------------------------   ------------------------
     00000000  .__.ABS.                           cpct_random
     00000000  HW_WHITE                           cpct_keyboard
     00000000  l__CABS                         
     00000000  l__DABS                         
     00000000  l__DATA                         
     00000000  l__GSFINAL                      
     00000000  l__GSINIT                       
     00000000  l__HOME                         
     00000000  l__INITIALIZED                  
     00000000  l__INITIALIZER                  
     00000000  s__CABS                         
     00000000  s__DABS                         
     00000014  HW_BLACK                           cpct_keyboard
     00000404  Key_O                              cpct_keyboard
     00000406  Key_R                              cpct_keyboard
     00000757  l__CODE                         
     00000803  Key_P                              cpct_keyboard
     00000808  Key_Q                              cpct_keyboard
     00002008  Key_A                              cpct_keyboard
     00004000  s__CODE                         
     00004757  s__DATA                         
     00004757  s__GSFINAL                      
     00004757  s__GSINIT                       
     00004757  s__HOME                         
     00004757  s__INITIALIZED                  
     00004757  s__INITIALIZER                  
     0000C000  CPCT_VMEM_START_ASM                cpct_keyboard
ASxxxx Linker V03.00 + NoICE + sdld,  page 2.
Hexadecimal  [32-Bits]

Area                                    Addr        Size        Decimal Bytes (Attributes)
--------------------------------        ----        ----        ------- ----- ------------
_CODE                               00004000    00000757 =        1879. bytes (REL,CON)

      Value  Global                              Global Defined In Module
      -----  --------------------------------   ------------------------
     00004000  _sp_border_block                   border_block
     00004040  _sp_bomb                           bomb
     00004080  _sp_enemy                          enemy
     000040C0  _sp_player                         player
     00004100  _main                              cpct_keyboard
     0000411A  sys_physics_update_entity          
     00004145  sys_physics_player_update          
     0000414D  sys_physics_enemies_update         
     00004162  sys_physics_bomb_update            
     00004163  sys_physics_init                   
     00004175  sys_physics_update                 
     0000417F  sys_input_init                     
     00004187  sys_input_update                   
     000041D6  sys_render_player                  
     000041FD  sys_render_enemies                 
     0000422E  sys_render_bombs                   
     0000425E  sys_render_init                    
     0000427F  sys_render_update                  
     00004283  sys_render_remove_entity           
     00004295  sys_render_remove_bomb             
     00004296  sys_render_one_border_block        
     000042A8  sys_render_min_row_map             
     000042BD  sys_render_max_row_map             
     000042D2  sys_render_min_col_map             
     000042E7  sys_render_max_col_map             
     000042FC  sys_render_map                     
     00004309  man_game_init                      
     00004316  man_game_update                    
     00004323  man_game_terminate                 
     00004349  man_entity_new_entity              
     0000435F  man_entity_initialize_entity       
     0000437A  man_entity_new_bomb                
     00004390  man_entity_initialize_bomb         
     000043A3  man_entity_init_player             
     000043AF  man_entity_init_entities           
     000043C5  man_entity_init_bombs              
     000043D1  man_entity_player_update           
     000043D2  man_entity_enemies_update          
     0000441E  man_entity_bombs_update            
     0000446A  man_entity_init                    
     00004474  man_entity_update                  
     0000447E  man_entity_create_entity           
     0000448C  man_entity_create_bomb             
     0000449A  man_entity_get_player              
     0000449F  man_entity_get_enemy_array         
     000044A7  man_entity_get_bomb_array          
     000044AF  man_entity_set_player_dead         
     000044B9  man_entity_set_enemy_dead          
     000044BF  man_entity_terminate               
     000044D4  _cpct_scanKeyboard_f               cpct_keyboard
ASxxxx Linker V03.00 + NoICE + sdld,  page 3.
Hexadecimal  [32-Bits]

Area                                    Addr        Size        Decimal Bytes (Attributes)
--------------------------------        ----        ----        ------- ----- ------------
_CODE                               00004000    00000757 =        1879. bytes (REL,CON)

      Value  Global                              Global Defined In Module
      -----  --------------------------------   ------------------------
     000044D4  cpct_scanKeyboard_f_asm            cpct_keyboard
     0000453E  _cpct_isKeyPressed                 cpct_keyboard
     0000453E  cpct_isKeyPressed_asm              cpct_keyboard
     0000454A  cpct_setPALColour_asm              cpct_video
     00004554  cpct_drawSprite_asm                cpct_sprites
     000045F4  _cpct_keyboardStatusBuffer         cpct_keyboard
     000045FE  cpct_setVideoMode_asm              cpct_video
     0000460B  _cpct_waitVSYNC                    cpct_video
     0000460B  cpct_waitVSYNC_asm                 cpct_video
     00004613  _cpct_disableFirmware              cpct_firmware
     00004613  _cpct_removeInterruptHandler       cpct_firmware
     00004613  cpct_disableFirmware_asm           cpct_firmware
     00004613  cpct_removeInterruptHandler_asm    cpct_firmware
     00004623  _cpct_getRandom_mxor_u8            cpct_random
     00004623  cpct_getRandom_mxor_u8_asm         cpct_random
     00004624  cpct_randomIdx_mxor_u8             cpct_random
     00004648  cpct_drawSolidBox_asm              cpct_sprites
     000046EC  cpct_drawSpriteBlended_asm         cpct_sprites
     000046F2  _cpct_dsb_blendFunction            cpct_sprites
     00004713  _cpct_mode_rom_status              cpct_firmware
     00004714  cpct_getScreenPtr_asm              cpct_video
     00004730  _cpct_mxor32_seed                  cpct_random
     00004734  _cpct_nextRandom_mxor_u32          cpct_random
     00004734  cpct_nextRandom_mxor_u32_asm       cpct_random

ASxxxx Linker V03.00 + NoICE + sdld,  page 4.

Files Linked                              [ module(s) ]

obj/assets/sprites/border_block.rel       [ border_block ]
obj/assets/sprites/bomb.rel               [ bomb ]
obj/assets/sprites/enemy.rel              [ enemy ]
obj/assets/sprites/player.rel             [ player ]
obj/main.rel                              [ cpct_keyboard ]
obj/cpct_functions.h.rel                  [  ]
obj/sys/physics_system.h.rel              [  ]
obj/sys/physics_system.rel                [  ]
obj/sys/input_system.h.rel                [  ]
obj/sys/render_system.h.rel               [  ]
obj/sys/input_system.rel                  [  ]
obj/sys/render_system.rel                 [  ]
obj/man/entity_manager.h.rel              [  ]
obj/man/game.rel                          [  ]
obj/man/game.h.rel                        [  ]
obj/man/entity_manager.rel                [  ]
obj/assets/assets.h.rel                   [  ]


Libraries Linked                          [ object file ]

/home/ac/Desktop/Universidad_2021/RA/cpctelera/cpctelera/cpctelera.lib
                                          [ cpct_scanKeyboard_f.rel ]
/home/ac/Desktop/Universidad_2021/RA/cpctelera/cpctelera/cpctelera.lib
                                          [ cpct_isKeyPressed.rel ]
/home/ac/Desktop/Universidad_2021/RA/cpctelera/cpctelera/cpctelera.lib
                                          [ cpct_setPALColour_asmbindings.re ]
/home/ac/Desktop/Universidad_2021/RA/cpctelera/cpctelera/cpctelera.lib
                                          [ cpct_drawSprite_asmbindings.rel ]
/home/ac/Desktop/Universidad_2021/RA/cpctelera/cpctelera/cpctelera.lib
                                          [ keyboard.rel ]
/home/ac/Desktop/Universidad_2021/RA/cpctelera/cpctelera/cpctelera.lib
                                          [ cpct_setVideoMode_asmbindings.re ]
/home/ac/Desktop/Universidad_2021/RA/cpctelera/cpctelera/cpctelera.lib
                                          [ cpct_waitVSYNC.rel ]
/home/ac/Desktop/Universidad_2021/RA/cpctelera/cpctelera/cpctelera.lib
                                          [ cpct_removeInterruptHandler.rel ]
/home/ac/Desktop/Universidad_2021/RA/cpctelera/cpctelera/cpctelera.lib
                                          [ cpct_getRandom_mxor_u8.rel ]
/home/ac/Desktop/Universidad_2021/RA/cpctelera/cpctelera/cpctelera.lib
                                          [ cpct_drawSolidBox_asmbindings.re ]
/home/ac/Desktop/Universidad_2021/RA/cpctelera/cpctelera/cpctelera.lib
                                          [ cpct_drawSpriteBlended_asmbindin ]
/home/ac/Desktop/Universidad_2021/RA/cpctelera/cpctelera/cpctelera.lib
                                          [ cpc_mode_rom_status.rel ]
/home/ac/Desktop/Universidad_2021/RA/cpctelera/cpctelera/cpctelera.lib
                                          [ cpct_getScreenPtr_asmbindings.re ]
/home/ac/Desktop/Universidad_2021/RA/cpctelera/cpctelera/cpctelera.lib
                                          [ cpct_mxor32_seed.rel ]
/home/ac/Desktop/Universidad_2021/RA/cpctelera/cpctelera/cpctelera.lib
                                          [ cpct_nextRandom_mxor_u32.rel ]

ASxxxx Linker V03.00 + NoICE + sdld,  page 5.

User Base Address Definitions

_CODE = 0x4000
_DATA = 0x0000

