ASxxxx Linker V03.00 + NoICE + sdld,  page 1.
Hexadecimal  [32-Bits]

Area                                    Addr        Size        Decimal Bytes (Attributes)
--------------------------------        ----        ----        ------- ----- ------------
.  .ABS.                            00000000    00000000 =           0. bytes (ABS,CON)

      Value  Global                              Global Defined In Module
      -----  --------------------------------   ------------------------
     00000000  .__.ABS.                           cpct_random
     00000000  HW_WHITE                           cpct_keyboard
     00000000  l__CABS                         
     00000000  l__DABS                         
     00000000  l__DATA                         
     00000000  l__GSFINAL                      
     00000000  l__GSINIT                       
     00000000  l__HOME                         
     00000000  l__INITIALIZED                  
     00000000  l__INITIALIZER                  
     00000000  s__CABS                         
     00000000  s__DABS                         
     00000014  HW_BLACK                           cpct_keyboard
     00000404  Key_O                              cpct_keyboard
     0000064E  l__CODE                         
     00000803  Key_P                              cpct_keyboard
     00000807  Key_W                              cpct_keyboard
     00000808  Key_Q                              cpct_keyboard
     00001007  Key_S                              cpct_keyboard
     00002007  Key_D                              cpct_keyboard
     00002008  Key_A                              cpct_keyboard
     00004000  s__CODE                         
     0000464E  s__DATA                         
     0000464E  s__GSFINAL                      
     0000464E  s__GSINIT                       
     0000464E  s__HOME                         
     0000464E  s__INITIALIZED                  
     0000464E  s__INITIALIZER                  
     0000C000  CPCT_VMEM_START_ASM                cpct_keyboard

ASxxxx Linker V03.00 + NoICE + sdld,  page 2.
Hexadecimal  [32-Bits]

Area                                    Addr        Size        Decimal Bytes (Attributes)
--------------------------------        ----        ----        ------- ----- ------------
_CODE                               00004000    0000064E =        1614. bytes (REL,CON)

      Value  Global                              Global Defined In Module
      -----  --------------------------------   ------------------------
     00004000  _sp_bomb                           bomb
     00004040  _sp_enemy                          enemy
     00004080  _sp_player                         player
     000040C0  _main                              cpct_keyboard
     000040FD  sys_physics_update_entity          
     00004128  sys_physics_player_update          
     0000412F  sys_physics_enemies_update         
     00004141  sys_physics_bomb_update            
     00004142  sys_physics_init                   
     00004143  sys_physics_update                 
     0000414D  sys_input_init                     
     0000414E  sys_input_update                   
     00004190  sys_render_player                  
     000041B6  sys_render_enemies                 
     000041E4  sys_render_bombs                   
     00004214  sys_render_init                    
     00004221  sys_render_update                  
     00004225  sys_render_remove_entity           
     00004237  sys_render_remove_bomb             
     00004238  man_game_init                      
     00004245  man_game_update                    
     00004246  man_game_render                    
     00004266  man_entity_new_entity              
     0000427C  man_entity_initialize_entity       
     00004299  man_entity_new_bomb                
     000042AF  man_entity_initialize_bomb         
     000042C2  man_entity_init_entities           
     000042D4  man_entity_init_bombs              
     000042E0  man_entity_player_update           
     000042E1  man_entity_enemies_update          
     0000432D  man_entity_bombs_update            
     00004379  man_entity_init                    
     00004380  man_entity_update                  
     0000438A  man_entity_create_entity           
     00004398  man_entity_create_bomb             
     000043A6  man_entity_get_player              
     000043AB  man_entity_get_enemy_array         
     000043B3  man_entity_get_bomb_array          
     000043BB  man_entity_set_player_dead         
     000043C5  man_entity_set_enemy_dead          
     000043CB  _cpct_scanKeyboard_f               cpct_keyboard
     000043CB  cpct_scanKeyboard_f_asm            cpct_keyboard
     00004435  _cpct_isKeyPressed                 cpct_keyboard
     00004435  cpct_isKeyPressed_asm              cpct_keyboard
     00004441  cpct_setPALColour_asm              cpct_video
     0000444B  cpct_drawSprite_asm                cpct_sprites
     000044EB  _cpct_keyboardStatusBuffer         cpct_keyboard
     000044F5  cpct_setVideoMode_asm              cpct_video
     00004502  _cpct_waitVSYNC                    cpct_video
     00004502  cpct_waitVSYNC_asm                 cpct_video
ASxxxx Linker V03.00 + NoICE + sdld,  page 3.
Hexadecimal  [32-Bits]

Area                                    Addr        Size        Decimal Bytes (Attributes)
--------------------------------        ----        ----        ------- ----- ------------
_CODE                               00004000    0000064E =        1614. bytes (REL,CON)

      Value  Global                              Global Defined In Module
      -----  --------------------------------   ------------------------
     0000450A  _cpct_disableFirmware              cpct_firmware
     0000450A  _cpct_removeInterruptHandler       cpct_firmware
     0000450A  cpct_disableFirmware_asm           cpct_firmware
     0000450A  cpct_removeInterruptHandler_asm    cpct_firmware
     0000451A  _cpct_getRandom_mxor_u8            cpct_random
     0000451A  cpct_getRandom_mxor_u8_asm         cpct_random
     0000451B  cpct_randomIdx_mxor_u8             cpct_random
     0000453F  cpct_drawSolidBox_asm              cpct_sprites
     000045E3  cpct_drawSpriteBlended_asm         cpct_sprites
     000045E9  _cpct_dsb_blendFunction            cpct_sprites
     0000460A  _cpct_mode_rom_status              cpct_firmware
     0000460B  cpct_getScreenPtr_asm              cpct_video
     00004627  _cpct_mxor32_seed                  cpct_random
     0000462B  _cpct_nextRandom_mxor_u32          cpct_random
     0000462B  cpct_nextRandom_mxor_u32_asm       cpct_random

ASxxxx Linker V03.00 + NoICE + sdld,  page 4.

Files Linked                              [ module(s) ]

obj/assets/sprites/bomb.rel               [ bomb ]
obj/assets/sprites/enemy.rel              [ enemy ]
obj/assets/sprites/player.rel             [ player ]
obj/main.rel                              [ cpct_keyboard ]
obj/cpct_functions.h.rel                  [  ]
obj/sys/physics_system.h.rel              [  ]
obj/sys/physics_system.rel                [  ]
obj/sys/input_system.h.rel                [  ]
obj/sys/render_system.h.rel               [  ]
obj/sys/input_system.rel                  [  ]
obj/sys/render_system.rel                 [  ]
obj/man/entity_manager.h.rel              [  ]
obj/man/game_manager.h.rel                [  ]
obj/man/game_manager.rel                  [  ]
obj/man/entity_manager.rel                [  ]
obj/assets/assets.h.rel                   [  ]


Libraries Linked                          [ object file ]

/home/ac/Desktop/Universidad_2021/RA/cpctelera/cpctelera/cpctelera.lib
                                          [ cpct_scanKeyboard_f.rel ]
/home/ac/Desktop/Universidad_2021/RA/cpctelera/cpctelera/cpctelera.lib
                                          [ cpct_isKeyPressed.rel ]
/home/ac/Desktop/Universidad_2021/RA/cpctelera/cpctelera/cpctelera.lib
                                          [ cpct_setPALColour_asmbindings.re ]
/home/ac/Desktop/Universidad_2021/RA/cpctelera/cpctelera/cpctelera.lib
                                          [ cpct_drawSprite_asmbindings.rel ]
/home/ac/Desktop/Universidad_2021/RA/cpctelera/cpctelera/cpctelera.lib
                                          [ keyboard.rel ]
/home/ac/Desktop/Universidad_2021/RA/cpctelera/cpctelera/cpctelera.lib
                                          [ cpct_setVideoMode_asmbindings.re ]
/home/ac/Desktop/Universidad_2021/RA/cpctelera/cpctelera/cpctelera.lib
                                          [ cpct_waitVSYNC.rel ]
/home/ac/Desktop/Universidad_2021/RA/cpctelera/cpctelera/cpctelera.lib
                                          [ cpct_removeInterruptHandler.rel ]
/home/ac/Desktop/Universidad_2021/RA/cpctelera/cpctelera/cpctelera.lib
                                          [ cpct_getRandom_mxor_u8.rel ]
/home/ac/Desktop/Universidad_2021/RA/cpctelera/cpctelera/cpctelera.lib
                                          [ cpct_drawSolidBox_asmbindings.re ]
/home/ac/Desktop/Universidad_2021/RA/cpctelera/cpctelera/cpctelera.lib
                                          [ cpct_drawSpriteBlended_asmbindin ]
/home/ac/Desktop/Universidad_2021/RA/cpctelera/cpctelera/cpctelera.lib
                                          [ cpc_mode_rom_status.rel ]
/home/ac/Desktop/Universidad_2021/RA/cpctelera/cpctelera/cpctelera.lib
                                          [ cpct_getScreenPtr_asmbindings.re ]
/home/ac/Desktop/Universidad_2021/RA/cpctelera/cpctelera/cpctelera.lib
                                          [ cpct_mxor32_seed.rel ]
/home/ac/Desktop/Universidad_2021/RA/cpctelera/cpctelera/cpctelera.lib
                                          [ cpct_nextRandom_mxor_u32.rel ]

ASxxxx Linker V03.00 + NoICE + sdld,  page 5.

User Base Address Definitions

_CODE = 0x4000
_DATA = 0x0000

