ASxxxx Linker V03.00 + NoICE + sdld,  page 1.
Hexadecimal  [32-Bits]

Area                                    Addr        Size        Decimal Bytes (Attributes)
--------------------------------        ----        ----        ------- ----- ------------
.  .ABS.                            00000000    00000000 =           0. bytes (ABS,CON)

      Value  Global                              Global Defined In Module
      -----  --------------------------------   ------------------------
     00000000  .__.ABS.                           cpct_random
     00000000  HW_WHITE                           cpct_keyboard
     00000000  l__CABS                         
     00000000  l__DABS                         
     00000000  l__DATA                         
     00000000  l__GSFINAL                      
     00000000  l__GSINIT                       
     00000000  l__HOME                         
     00000000  l__INITIALIZED                  
     00000000  l__INITIALIZER                  
     00000000  s__CABS                         
     00000000  s__DABS                         
     00000014  HW_BLACK                           cpct_keyboard
     00000404  Key_O                              cpct_keyboard
     0000063C  l__CODE                         
     00000803  Key_P                              cpct_keyboard
     00000808  Key_Q                              cpct_keyboard
     00002008  Key_A                              cpct_keyboard
     00004000  s__CODE                         
     0000463C  s__DATA                         
     0000463C  s__GSFINAL                      
     0000463C  s__GSINIT                       
     0000463C  s__HOME                         
     0000463C  s__INITIALIZED                  
     0000463C  s__INITIALIZER                  
     0000C000  CPCT_VMEM_START_ASM                cpct_keyboard

ASxxxx Linker V03.00 + NoICE + sdld,  page 2.
Hexadecimal  [32-Bits]

Area                                    Addr        Size        Decimal Bytes (Attributes)
--------------------------------        ----        ----        ------- ----- ------------
_CODE                               00004000    0000063C =        1596. bytes (REL,CON)

      Value  Global                              Global Defined In Module
      -----  --------------------------------   ------------------------
     00004000  _sp_bomb                           bomb
     00004040  _sp_enemy                          enemy
     00004080  _sp_player                         player
     000040C0  _main                              cpct_keyboard
     000040F6  sys_physics_update_entity          
     00004121  sys_physics_player_update          
     00004128  sys_physics_enemies_update         
     0000413A  sys_physics_bomb_update            
     0000413B  sys_physics_init                   
     0000413C  sys_physics_update                 
     00004146  sys_input_init                     
     00004147  sys_input_update                   
     00004189  sys_render_player                  
     000041AF  sys_render_enemies                 
     000041DD  sys_render_bombs                   
     0000420D  sys_render_init                    
     0000421A  sys_render_update                  
     0000421E  sys_render_remove_entity           
     00004230  sys_render_remove_bomb             
     00004250  man_entity_new_entity              
     00004266  man_entity_initialize_entity       
     00004283  man_entity_new_bomb                
     00004299  man_entity_initialize_bomb         
     000042AC  man_entity_init_player             
     000042AD  man_entity_init_entities           
     000042BF  man_entity_init_bombs              
     000042CB  man_entity_player_update           
     000042CC  man_entity_enemies_update          
     00004318  man_entity_bombs_update            
     00004364  man_entity_init                    
     0000436E  man_entity_update                  
     00004378  man_entity_create_entity           
     00004386  man_entity_create_bomb             
     00004394  man_entity_get_player              
     00004399  man_entity_get_enemy_array         
     000043A1  man_entity_get_bomb_array          
     000043A9  man_entity_set_player_dead         
     000043B3  man_entity_set_enemy_dead          
     000043B9  _cpct_scanKeyboard_f               cpct_keyboard
     000043B9  cpct_scanKeyboard_f_asm            cpct_keyboard
     00004423  _cpct_isKeyPressed                 cpct_keyboard
     00004423  cpct_isKeyPressed_asm              cpct_keyboard
     0000442F  cpct_setPALColour_asm              cpct_video
     00004439  cpct_drawSprite_asm                cpct_sprites
     000044D9  _cpct_keyboardStatusBuffer         cpct_keyboard
     000044E3  cpct_setVideoMode_asm              cpct_video
     000044F0  _cpct_waitVSYNC                    cpct_video
     000044F0  cpct_waitVSYNC_asm                 cpct_video
     000044F8  _cpct_disableFirmware              cpct_firmware
     000044F8  _cpct_removeInterruptHandler       cpct_firmware
ASxxxx Linker V03.00 + NoICE + sdld,  page 3.
Hexadecimal  [32-Bits]

Area                                    Addr        Size        Decimal Bytes (Attributes)
--------------------------------        ----        ----        ------- ----- ------------
_CODE                               00004000    0000063C =        1596. bytes (REL,CON)

      Value  Global                              Global Defined In Module
      -----  --------------------------------   ------------------------
     000044F8  cpct_disableFirmware_asm           cpct_firmware
     000044F8  cpct_removeInterruptHandler_asm    cpct_firmware
     00004508  _cpct_getRandom_mxor_u8            cpct_random
     00004508  cpct_getRandom_mxor_u8_asm         cpct_random
     00004509  cpct_randomIdx_mxor_u8             cpct_random
     0000452D  cpct_drawSolidBox_asm              cpct_sprites
     000045D1  cpct_drawSpriteBlended_asm         cpct_sprites
     000045D7  _cpct_dsb_blendFunction            cpct_sprites
     000045F8  _cpct_mode_rom_status              cpct_firmware
     000045F9  cpct_getScreenPtr_asm              cpct_video
     00004615  _cpct_mxor32_seed                  cpct_random
     00004619  _cpct_nextRandom_mxor_u32          cpct_random
     00004619  cpct_nextRandom_mxor_u32_asm       cpct_random
ASxxxx Linker V03.00 + NoICE + sdld,  page 4.

Files Linked                              [ module(s) ]

obj/assets/sprites/bomb.rel               [ bomb ]
obj/assets/sprites/enemy.rel              [ enemy ]
obj/assets/sprites/player.rel             [ player ]
obj/main.rel                              [ cpct_keyboard ]
obj/cpct_functions.h.rel                  [  ]
obj/sys/physics_system.h.rel              [  ]
obj/sys/physics_system.rel                [  ]
obj/sys/input_system.rel                  [  ]
obj/sys/render_system.rel                 [  ]
obj/sys/input_system.h.rel                [  ]
obj/sys/render_system.h.rel               [  ]
obj/assets/assets.h.rel                   [  ]
obj/man/entity_manager.rel                [  ]
obj/man/entity_manager.h.rel              [  ]


Libraries Linked                          [ object file ]

/home/ceas/Documents/cpctelera/cpctelera/cpctelera.lib
                                          [ cpct_scanKeyboard_f.rel ]
/home/ceas/Documents/cpctelera/cpctelera/cpctelera.lib
                                          [ cpct_isKeyPressed.rel ]
/home/ceas/Documents/cpctelera/cpctelera/cpctelera.lib
                                          [ cpct_setPALColour_asmbindings.re ]
/home/ceas/Documents/cpctelera/cpctelera/cpctelera.lib
                                          [ cpct_drawSprite_asmbindings.rel ]
/home/ceas/Documents/cpctelera/cpctelera/cpctelera.lib
                                          [ keyboard.rel ]
/home/ceas/Documents/cpctelera/cpctelera/cpctelera.lib
                                          [ cpct_setVideoMode_asmbindings.re ]
/home/ceas/Documents/cpctelera/cpctelera/cpctelera.lib
                                          [ cpct_waitVSYNC.rel ]
/home/ceas/Documents/cpctelera/cpctelera/cpctelera.lib
                                          [ cpct_removeInterruptHandler.rel ]
/home/ceas/Documents/cpctelera/cpctelera/cpctelera.lib
                                          [ cpct_getRandom_mxor_u8.rel ]
/home/ceas/Documents/cpctelera/cpctelera/cpctelera.lib
                                          [ cpct_drawSolidBox_asmbindings.re ]
/home/ceas/Documents/cpctelera/cpctelera/cpctelera.lib
                                          [ cpct_drawSpriteBlended_asmbindin ]
/home/ceas/Documents/cpctelera/cpctelera/cpctelera.lib
                                          [ cpc_mode_rom_status.rel ]
/home/ceas/Documents/cpctelera/cpctelera/cpctelera.lib
                                          [ cpct_getScreenPtr_asmbindings.re ]
/home/ceas/Documents/cpctelera/cpctelera/cpctelera.lib
                                          [ cpct_mxor32_seed.rel ]
/home/ceas/Documents/cpctelera/cpctelera/cpctelera.lib
                                          [ cpct_nextRandom_mxor_u32.rel ]

ASxxxx Linker V03.00 + NoICE + sdld,  page 5.

User Base Address Definitions

_CODE = 0x4000
_DATA = 0x0000

